target datalayout = "e-m:e-p270:32:32-p271:32:32-p272:64:64-i64:64-i128:128-f80:128-n8:16:32:64-S128"
target triple = "x86_64-pc-linux-gnu"

%"class.pxrInternal_v0_24__pxrReserved__::pxr_double_conversion::Bignum" = type { i16, i16, [128 x i32] }

; Function Attrs: mustprogress nounwind uwtable
define linkonce_odr void @_ZN32pxrInternal_v0_24__pxrReserved__21pxr_double_conversion6Bignum14EnsureCapacityEi(i32 noundef %0) #0 comdat align 2 {
  %2 = alloca i32, align 4
  store i32 %0, ptr %2, align 4
  %3 = load i32, ptr %2, align 4
  %4 = icmp sgt i32 %3, 128
  br i1 %4, label %5, label %6

5:                                                ; preds = %1
  call void @abort() #4
  unreachable

6:                                                ; preds = %1
  ret void
}

; Function Attrs: mustprogress nounwind uwtable
define void @_ZN32pxrInternal_v0_24__pxrReserved__21pxr_double_conversion6Bignum5ClampEv(ptr noundef nonnull align 4 dereferenceable(516) %0) #0 align 2 {
  %2 = alloca ptr, align 8
  store ptr %0, ptr %2, align 8
  %3 = load ptr, ptr %2, align 8
  br label %4

4:                                                ; preds = %19, %1
  %5 = getelementptr inbounds nuw %"class.pxrInternal_v0_24__pxrReserved__::pxr_double_conversion::Bignum", ptr %3, i32 0, i32 0
  %6 = load i16, ptr %5, align 4
  %7 = sext i16 %6 to i32
  %8 = icmp sgt i32 %7, 0
  br i1 %8, label %9, label %17

9:                                                ; preds = %4
  %10 = getelementptr inbounds nuw %"class.pxrInternal_v0_24__pxrReserved__::pxr_double_conversion::Bignum", ptr %3, i32 0, i32 0
  %11 = load i16, ptr %10, align 4
  %12 = sext i16 %11 to i32
  %13 = sub nsw i32 %12, 1
  %14 = call noundef nonnull align 4 dereferenceable(4) ptr @_ZN32pxrInternal_v0_24__pxrReserved__21pxr_double_conversion6Bignum8RawBigitEi(ptr noundef nonnull align 4 dereferenceable(516) %3, i32 noundef %13)
  %15 = load i32, ptr %14, align 4
  %16 = icmp eq i32 %15, 0
  br label %17

17:                                               ; preds = %9, %4
  %18 = phi i1 [ false, %4 ], [ %16, %9 ]
  br i1 %18, label %19, label %23

19:                                               ; preds = %17
  %20 = getelementptr inbounds nuw %"class.pxrInternal_v0_24__pxrReserved__::pxr_double_conversion::Bignum", ptr %3, i32 0, i32 0
  %21 = load i16, ptr %20, align 4
  %22 = add i16 %21, -1
  store i16 %22, ptr %20, align 4
  br label %4, !llvm.loop !11

23:                                               ; preds = %17
  %24 = getelementptr inbounds nuw %"class.pxrInternal_v0_24__pxrReserved__::pxr_double_conversion::Bignum", ptr %3, i32 0, i32 0
  %25 = load i16, ptr %24, align 4
  %26 = sext i16 %25 to i32
  %27 = icmp eq i32 %26, 0
  br i1 %27, label %28, label %30

28:                                               ; preds = %23
  %29 = getelementptr inbounds nuw %"class.pxrInternal_v0_24__pxrReserved__::pxr_double_conversion::Bignum", ptr %3, i32 0, i32 1
  store i16 0, ptr %29, align 2
  br label %30

30:                                               ; preds = %28, %23
  ret void
}

; Function Attrs: mustprogress nounwind uwtable
define noundef nonnull align 4 dereferenceable(4) ptr @_ZNK32pxrInternal_v0_24__pxrReserved__21pxr_double_conversion6Bignum8RawBigitEi(ptr noundef nonnull align 4 dereferenceable(516) %0, i32 noundef %1) #0 align 2 {
  %3 = alloca ptr, align 8
  %4 = alloca i32, align 4
  store ptr %0, ptr %3, align 8
  store i32 %1, ptr %4, align 4
  %5 = load ptr, ptr %3, align 8
  %6 = getelementptr inbounds nuw %"class.pxrInternal_v0_24__pxrReserved__::pxr_double_conversion::Bignum", ptr %5, i32 0, i32 2
  %7 = load i32, ptr %4, align 4
  %8 = sext i32 %7 to i64
  %9 = getelementptr inbounds [128 x i32], ptr %6, i64 0, i64 %8
  ret ptr %9
}

; Function Attrs: mustprogress nounwind uwtable
define noundef nonnull align 4 dereferenceable(4) ptr @_ZN32pxrInternal_v0_24__pxrReserved__21pxr_double_conversion6Bignum8RawBigitEi(ptr noundef nonnull align 4 dereferenceable(516) %0, i32 noundef %1) #0 align 2 {
  %3 = alloca ptr, align 8
  %4 = alloca i32, align 4
  store ptr %0, ptr %3, align 8
  store i32 %1, ptr %4, align 4
  %5 = load ptr, ptr %3, align 8
  %6 = getelementptr inbounds nuw %"class.pxrInternal_v0_24__pxrReserved__::pxr_double_conversion::Bignum", ptr %5, i32 0, i32 2
  %7 = load i32, ptr %4, align 4
  %8 = sext i32 %7 to i64
  %9 = getelementptr inbounds [128 x i32], ptr %6, i64 0, i64 %8
  ret ptr %9
}

; Function Attrs: mustprogress uwtable
define void @_ZN32pxrInternal_v0_24__pxrReserved__21pxr_double_conversion6Bignum5AlignERKS1_(ptr noundef nonnull align 4 dereferenceable(516) %0, ptr noundef nonnull align 4 dereferenceable(516) %1) #1 align 2 {
  %3 = alloca ptr, align 8
  %4 = alloca ptr, align 8
  %5 = alloca i32, align 4
  %6 = alloca i32, align 4
  %7 = alloca i32, align 4
  store ptr %0, ptr %3, align 8
  store ptr %1, ptr %4, align 8
  %8 = load ptr, ptr %3, align 8
  %9 = getelementptr inbounds nuw %"class.pxrInternal_v0_24__pxrReserved__::pxr_double_conversion::Bignum", ptr %8, i32 0, i32 1
  %10 = load i16, ptr %9, align 2
  %11 = sext i16 %10 to i32
  %12 = load ptr, ptr %4, align 8
  %13 = getelementptr inbounds nuw %"class.pxrInternal_v0_24__pxrReserved__::pxr_double_conversion::Bignum", ptr %12, i32 0, i32 1
  %14 = load i16, ptr %13, align 2
  %15 = sext i16 %14 to i32
  %16 = icmp sgt i32 %11, %15
  br i1 %16, label %17, label %77

17:                                               ; preds = %2
  %18 = getelementptr inbounds nuw %"class.pxrInternal_v0_24__pxrReserved__::pxr_double_conversion::Bignum", ptr %8, i32 0, i32 1
  %19 = load i16, ptr %18, align 2
  %20 = sext i16 %19 to i32
  %21 = load ptr, ptr %4, align 8
  %22 = getelementptr inbounds nuw %"class.pxrInternal_v0_24__pxrReserved__::pxr_double_conversion::Bignum", ptr %21, i32 0, i32 1
  %23 = load i16, ptr %22, align 2
  %24 = sext i16 %23 to i32
  %25 = sub nsw i32 %20, %24
  store i32 %25, ptr %5, align 4
  %26 = getelementptr inbounds nuw %"class.pxrInternal_v0_24__pxrReserved__::pxr_double_conversion::Bignum", ptr %8, i32 0, i32 0
  %27 = load i16, ptr %26, align 4
  %28 = sext i16 %27 to i32
  %29 = load i32, ptr %5, align 4
  %30 = add nsw i32 %28, %29
  call void @_ZN32pxrInternal_v0_24__pxrReserved__21pxr_double_conversion6Bignum14EnsureCapacityEi(i32 noundef %30)
  %31 = getelementptr inbounds nuw %"class.pxrInternal_v0_24__pxrReserved__::pxr_double_conversion::Bignum", ptr %8, i32 0, i32 0
  %32 = load i16, ptr %31, align 4
  %33 = sext i16 %32 to i32
  %34 = sub nsw i32 %33, 1
  store i32 %34, ptr %6, align 4
  br label %35

35:                                               ; preds = %46, %17
  %36 = load i32, ptr %6, align 4
  %37 = icmp sge i32 %36, 0
  br i1 %37, label %38, label %49

38:                                               ; preds = %35
  %39 = load i32, ptr %6, align 4
  %40 = call noundef nonnull align 4 dereferenceable(4) ptr @_ZN32pxrInternal_v0_24__pxrReserved__21pxr_double_conversion6Bignum8RawBigitEi(ptr noundef nonnull align 4 dereferenceable(516) %8, i32 noundef %39)
  %41 = load i32, ptr %40, align 4
  %42 = load i32, ptr %6, align 4
  %43 = load i32, ptr %5, align 4
  %44 = add nsw i32 %42, %43
  %45 = call noundef nonnull align 4 dereferenceable(4) ptr @_ZN32pxrInternal_v0_24__pxrReserved__21pxr_double_conversion6Bignum8RawBigitEi(ptr noundef nonnull align 4 dereferenceable(516) %8, i32 noundef %44)
  store i32 %41, ptr %45, align 4
  br label %46

46:                                               ; preds = %38
  %47 = load i32, ptr %6, align 4
  %48 = add nsw i32 %47, -1
  store i32 %48, ptr %6, align 4
  br label %35, !llvm.loop !16

49:                                               ; preds = %35
  store i32 0, ptr %7, align 4
  br label %50

50:                                               ; preds = %57, %49
  %51 = load i32, ptr %7, align 4
  %52 = load i32, ptr %5, align 4
  %53 = icmp slt i32 %51, %52
  br i1 %53, label %54, label %60

54:                                               ; preds = %50
  %55 = load i32, ptr %7, align 4
  %56 = call noundef nonnull align 4 dereferenceable(4) ptr @_ZN32pxrInternal_v0_24__pxrReserved__21pxr_double_conversion6Bignum8RawBigitEi(ptr noundef nonnull align 4 dereferenceable(516) %8, i32 noundef %55)
  store i32 0, ptr %56, align 4
  br label %57

57:                                               ; preds = %54
  %58 = load i32, ptr %7, align 4
  %59 = add nsw i32 %58, 1
  store i32 %59, ptr %7, align 4
  br label %50, !llvm.loop !17

60:                                               ; preds = %50
  %61 = load i32, ptr %5, align 4
  %62 = trunc i32 %61 to i16
  %63 = sext i16 %62 to i32
  %64 = getelementptr inbounds nuw %"class.pxrInternal_v0_24__pxrReserved__::pxr_double_conversion::Bignum", ptr %8, i32 0, i32 0
  %65 = load i16, ptr %64, align 4
  %66 = sext i16 %65 to i32
  %67 = add nsw i32 %66, %63
  %68 = trunc i32 %67 to i16
  store i16 %68, ptr %64, align 4
  %69 = load i32, ptr %5, align 4
  %70 = trunc i32 %69 to i16
  %71 = sext i16 %70 to i32
  %72 = getelementptr inbounds nuw %"class.pxrInternal_v0_24__pxrReserved__::pxr_double_conversion::Bignum", ptr %8, i32 0, i32 1
  %73 = load i16, ptr %72, align 2
  %74 = sext i16 %73 to i32
  %75 = sub nsw i32 %74, %71
  %76 = trunc i32 %75 to i16
  store i16 %76, ptr %72, align 2
  br label %77

77:                                               ; preds = %60, %2
  ret void
}

; Function Attrs: mustprogress uwtable
define void @_ZN32pxrInternal_v0_24__pxrReserved__21pxr_double_conversion6Bignum14SubtractBignumERKS1_(ptr noundef nonnull align 4 dereferenceable(516) %0, ptr noundef nonnull align 4 dereferenceable(516) %1) #1 align 2 {
  %3 = alloca ptr, align 8
  %4 = alloca ptr, align 8
  %5 = alloca i32, align 4
  %6 = alloca i32, align 4
  %7 = alloca i32, align 4
  %8 = alloca i32, align 4
  %9 = alloca i32, align 4
  store ptr %0, ptr %3, align 8
  store ptr %1, ptr %4, align 8
  %10 = load ptr, ptr %3, align 8
  %11 = load ptr, ptr %4, align 8
  call void @_ZN32pxrInternal_v0_24__pxrReserved__21pxr_double_conversion6Bignum5AlignERKS1_(ptr noundef nonnull align 4 dereferenceable(516) %10, ptr noundef nonnull align 4 dereferenceable(516) %11)
  %12 = load ptr, ptr %4, align 8
  %13 = getelementptr inbounds nuw %"class.pxrInternal_v0_24__pxrReserved__::pxr_double_conversion::Bignum", ptr %12, i32 0, i32 1
  %14 = load i16, ptr %13, align 2
  %15 = sext i16 %14 to i32
  %16 = getelementptr inbounds nuw %"class.pxrInternal_v0_24__pxrReserved__::pxr_double_conversion::Bignum", ptr %10, i32 0, i32 1
  %17 = load i16, ptr %16, align 2
  %18 = sext i16 %17 to i32
  %19 = sub nsw i32 %15, %18
  store i32 %19, ptr %5, align 4
  store i32 0, ptr %6, align 4
  store i32 0, ptr %7, align 4
  br label %20

20:                                               ; preds = %48, %2
  %21 = load i32, ptr %7, align 4
  %22 = load ptr, ptr %4, align 8
  %23 = getelementptr inbounds nuw %"class.pxrInternal_v0_24__pxrReserved__::pxr_double_conversion::Bignum", ptr %22, i32 0, i32 0
  %24 = load i16, ptr %23, align 4
  %25 = sext i16 %24 to i32
  %26 = icmp slt i32 %21, %25
  br i1 %26, label %27, label %51

27:                                               ; preds = %20
  %28 = load i32, ptr %7, align 4
  %29 = load i32, ptr %5, align 4
  %30 = add nsw i32 %28, %29
  %31 = call noundef nonnull align 4 dereferenceable(4) ptr @_ZN32pxrInternal_v0_24__pxrReserved__21pxr_double_conversion6Bignum8RawBigitEi(ptr noundef nonnull align 4 dereferenceable(516) %10, i32 noundef %30)
  %32 = load i32, ptr %31, align 4
  %33 = load ptr, ptr %4, align 8
  %34 = load i32, ptr %7, align 4
  %35 = call noundef nonnull align 4 dereferenceable(4) ptr @_ZNK32pxrInternal_v0_24__pxrReserved__21pxr_double_conversion6Bignum8RawBigitEi(ptr noundef nonnull align 4 dereferenceable(516) %33, i32 noundef %34)
  %36 = load i32, ptr %35, align 4
  %37 = sub i32 %32, %36
  %38 = load i32, ptr %6, align 4
  %39 = sub i32 %37, %38
  store i32 %39, ptr %8, align 4
  %40 = load i32, ptr %8, align 4
  %41 = and i32 %40, 268435455
  %42 = load i32, ptr %7, align 4
  %43 = load i32, ptr %5, align 4
  %44 = add nsw i32 %42, %43
  %45 = call noundef nonnull align 4 dereferenceable(4) ptr @_ZN32pxrInternal_v0_24__pxrReserved__21pxr_double_conversion6Bignum8RawBigitEi(ptr noundef nonnull align 4 dereferenceable(516) %10, i32 noundef %44)
  store i32 %41, ptr %45, align 4
  %46 = load i32, ptr %8, align 4
  %47 = lshr i32 %46, 31
  store i32 %47, ptr %6, align 4
  br label %48

48:                                               ; preds = %27
  %49 = load i32, ptr %7, align 4
  %50 = add nsw i32 %49, 1
  store i32 %50, ptr %7, align 4
  br label %20, !llvm.loop !18

51:                                               ; preds = %20
  br label %52

52:                                               ; preds = %55, %51
  %53 = load i32, ptr %6, align 4
  %54 = icmp ne i32 %53, 0
  br i1 %54, label %55, label %73

55:                                               ; preds = %52
  %56 = load i32, ptr %7, align 4
  %57 = load i32, ptr %5, align 4
  %58 = add nsw i32 %56, %57
  %59 = call noundef nonnull align 4 dereferenceable(4) ptr @_ZN32pxrInternal_v0_24__pxrReserved__21pxr_double_conversion6Bignum8RawBigitEi(ptr noundef nonnull align 4 dereferenceable(516) %10, i32 noundef %58)
  %60 = load i32, ptr %59, align 4
  %61 = load i32, ptr %6, align 4
  %62 = sub i32 %60, %61
  store i32 %62, ptr %9, align 4
  %63 = load i32, ptr %9, align 4
  %64 = and i32 %63, 268435455
  %65 = load i32, ptr %7, align 4
  %66 = load i32, ptr %5, align 4
  %67 = add nsw i32 %65, %66
  %68 = call noundef nonnull align 4 dereferenceable(4) ptr @_ZN32pxrInternal_v0_24__pxrReserved__21pxr_double_conversion6Bignum8RawBigitEi(ptr noundef nonnull align 4 dereferenceable(516) %10, i32 noundef %67)
  store i32 %64, ptr %68, align 4
  %69 = load i32, ptr %9, align 4
  %70 = lshr i32 %69, 31
  store i32 %70, ptr %6, align 4
  %71 = load i32, ptr %7, align 4
  %72 = add nsw i32 %71, 1
  store i32 %72, ptr %7, align 4
  br label %52, !llvm.loop !19

73:                                               ; preds = %52
  call void @_ZN32pxrInternal_v0_24__pxrReserved__21pxr_double_conversion6Bignum5ClampEv(ptr noundef nonnull align 4 dereferenceable(516) %10)
  ret void
}