; Function Attrs: mustprogress nofree nounwind uwtable
define void @_ZN32pxrInternal_v0_24__pxrReserved__21pxr_double_conversion6Bignum14SubtractBignumERKS1_(ptr nocapture noundef nonnull align 4 dereferenceable(516) %0, ptr nocapture noundef nonnull readonly align 4 dereferenceable(516) %1) local_unnamed_addr #4 align 2 {
  %3 = getelementptr inbounds nuw i8, ptr %0, i64 2
  %4 = load i16, ptr %3, align 2
  %5 = getelementptr inbounds nuw i8, ptr %1, i64 2
  %6 = load i16, ptr %5, align 2
  %7 = icmp sgt i16 %4, %6
  br i1 %7, label %8, label %_ZN32pxrInternal_v0_24__pxrReserved__21pxr_double_conversion6Bignum5AlignERKS1_.exit

8:                                                ; preds = %2
  %9 = sext i16 %6 to i32
  %10 = sext i16 %4 to i32
  %11 = sub nsw i32 %10, %9
  %12 = load i16, ptr %0, align 4
  %13 = sext i16 %12 to i32
  %14 = add nsw i32 %11, %13
  %15 = icmp sgt i32 %14, 128
  br i1 %15, label %20, label %_ZN32pxrInternal_v0_24__pxrReserved__21pxr_double_conversion6Bignum14EnsureCapacityEi.exit.preheader.i

_ZN32pxrInternal_v0_24__pxrReserved__21pxr_double_conversion6Bignum14EnsureCapacityEi.exit.preheader.i: ; preds = %8
  %16 = icmp sgt i16 %12, 0
  br i1 %16, label %.lr.ph.i, label %.preheader.i

.lr.ph.i:                                         ; preds = %_ZN32pxrInternal_v0_24__pxrReserved__21pxr_double_conversion6Bignum14EnsureCapacityEi.exit.preheader.i
  %17 = getelementptr inbounds nuw i8, ptr %0, i64 4
  %18 = zext nneg i16 %12 to i64
  %19 = sext i32 %11 to i64
  br label %_ZN32pxrInternal_v0_24__pxrReserved__21pxr_double_conversion6Bignum14EnsureCapacityEi.exit.i

20:                                               ; preds = %8
  tail call void @abort() #11
  unreachable

.preheader.i:                                     ; preds = %_ZN32pxrInternal_v0_24__pxrReserved__21pxr_double_conversion6Bignum14EnsureCapacityEi.exit.i, %_ZN32pxrInternal_v0_24__pxrReserved__21pxr_double_conversion6Bignum14EnsureCapacityEi.exit.preheader.i
  %21 = icmp sgt i32 %11, 0
  br i1 %21, label %.lr.ph20.i, label %._crit_edge.i

.lr.ph20.i:                                       ; preds = %.preheader.i
  %22 = getelementptr inbounds nuw i8, ptr %0, i64 4
  %23 = zext nneg i32 %11 to i64
  %24 = shl nuw nsw i64 %23, 2
  tail call void @llvm.memset.p0.i64(ptr nonnull align 4 %22, i8 0, i64 %24, i1 false)
  br label %._crit_edge.i

_ZN32pxrInternal_v0_24__pxrReserved__21pxr_double_conversion6Bignum14EnsureCapacityEi.exit.i: ; preds = %_ZN32pxrInternal_v0_24__pxrReserved__21pxr_double_conversion6Bignum14EnsureCapacityEi.exit.i, %.lr.ph.i
  %indvars.iv.i = phi i64 [ %18, %.lr.ph.i ], [ %indvars.iv.next.i, %_ZN32pxrInternal_v0_24__pxrReserved__21pxr_double_conversion6Bignum14EnsureCapacityEi.exit.i ]
  %indvars.iv.next.i = add nsw i64 %indvars.iv.i, -1
  %25 = getelementptr inbounds [128 x i32], ptr %17, i64 0, i64 %indvars.iv.next.i
  %26 = load i32, ptr %25, align 4
  %27 = add nsw i64 %indvars.iv.next.i, %19
  %28 = getelementptr inbounds [128 x i32], ptr %17, i64 0, i64 %27
  store i32 %26, ptr %28, align 4
  %29 = icmp ugt i64 %indvars.iv.i, 1
  br i1 %29, label %_ZN32pxrInternal_v0_24__pxrReserved__21pxr_double_conversion6Bignum14EnsureCapacityEi.exit.i, label %.preheader.i, !llvm.loop !19

._crit_edge.i:                                    ; preds = %.lr.ph20.i, %.preheader.i
  %30 = load i16, ptr %0, align 4
  %31 = trunc i32 %11 to i16
  %32 = add i16 %30, %31
  store i16 %32, ptr %0, align 4
  %33 = load i16, ptr %3, align 2
  %34 = sub i16 %33, %31
  store i16 %34, ptr %3, align 2
  %.pre = load i16, ptr %5, align 2
  br label %_ZN32pxrInternal_v0_24__pxrReserved__21pxr_double_conversion6Bignum5AlignERKS1_.exit

_ZN32pxrInternal_v0_24__pxrReserved__21pxr_double_conversion6Bignum5AlignERKS1_.exit: ; preds = %2, %._crit_edge.i
  %35 = phi i16 [ %4, %2 ], [ %34, %._crit_edge.i ]
  %36 = phi i16 [ %6, %2 ], [ %.pre, %._crit_edge.i ]
  %37 = sext i16 %36 to i32
  %38 = sext i16 %35 to i32
  %39 = sub nsw i32 %37, %38
  %40 = load i16, ptr %1, align 4
  %41 = icmp sgt i16 %40, 0
  br i1 %41, label %.lr.ph, label %._crit_edge

.lr.ph:                                           ; preds = %_ZN32pxrInternal_v0_24__pxrReserved__21pxr_double_conversion6Bignum5AlignERKS1_.exit
  %42 = getelementptr inbounds nuw i8, ptr %0, i64 4
  %43 = getelementptr inbounds nuw i8, ptr %1, i64 4
  %44 = sext i32 %39 to i64
  br label %49

.preheader:                                       ; preds = %49
  %45 = icmp sgt i32 %56, -1
  br i1 %45, label %._crit_edge, label %.lr.ph32

.lr.ph32:                                         ; preds = %.preheader
  %46 = and i64 %indvars.iv.next, 4294967295
  %47 = getelementptr inbounds nuw i8, ptr %0, i64 4
  %48 = sext i32 %39 to i64
  br label %62

49:                                               ; preds = %.lr.ph, %49
  %indvars.iv = phi i64 [ 0, %.lr.ph ], [ %indvars.iv.next, %49 ]
  %.028 = phi i32 [ 0, %.lr.ph ], [ %58, %49 ]
  %50 = add nsw i64 %indvars.iv, %44
  %51 = getelementptr inbounds [128 x i32], ptr %42, i64 0, i64 %50
  %52 = load i32, ptr %51, align 4
  %53 = getelementptr inbounds [128 x i32], ptr %43, i64 0, i64 %indvars.iv
  %54 = load i32, ptr %53, align 4
  %55 = add i32 %.028, %54
  %56 = sub i32 %52, %55
  %57 = and i32 %56, 268435455
  store i32 %57, ptr %51, align 4
  %58 = lshr i32 %56, 31
  %indvars.iv.next = add nuw nsw i64 %indvars.iv, 1
  %59 = load i16, ptr %1, align 4
  %60 = sext i16 %59 to i64
  %61 = icmp slt i64 %indvars.iv.next, %60
  br i1 %61, label %49, label %.preheader, !llvm.loop !22

62:                                               ; preds = %.lr.ph32, %62
  %indvars.iv35 = phi i64 [ %46, %.lr.ph32 ], [ %indvars.iv.next36, %62 ]
  %63 = add nsw i64 %indvars.iv35, %48
  %64 = getelementptr inbounds [128 x i32], ptr %47, i64 0, i64 %63
  %65 = load i32, ptr %64, align 4
  %66 = add i32 %65, -1
  %67 = and i32 %66, 268435455
  store i32 %67, ptr %64, align 4
  %indvars.iv.next36 = add nuw nsw i64 %indvars.iv35, 1
  %.not = icmp sgt i32 %66, -1
  br i1 %.not, label %._crit_edge, label %62, !llvm.loop !23

._crit_edge:                                      ; preds = %62, %_ZN32pxrInternal_v0_24__pxrReserved__21pxr_double_conversion6Bignum5AlignERKS1_.exit, %.preheader
  %.pr.i = load i16, ptr %0, align 4
  %68 = icmp sgt i16 %.pr.i, 0
  br i1 %68, label %.lr.ph.i25, label %.critedge.i

.lr.ph.i25:                                       ; preds = %._crit_edge
  %69 = getelementptr inbounds nuw i8, ptr %0, i64 4
  br label %70

70:                                               ; preds = %78, %.lr.ph.i25
  %71 = phi i16 [ %.pr.i, %.lr.ph.i25 ], [ %79, %78 ]
  %72 = zext nneg i16 %71 to i64
  %73 = add nuw nsw i64 %72, 4294967295
  %74 = and i64 %73, 4294967295
  %75 = getelementptr inbounds [128 x i32], ptr %69, i64 0, i64 %74
  %76 = load i32, ptr %75, align 4
  %77 = icmp eq i32 %76, 0
  br i1 %77, label %78, label %_ZN32pxrInternal_v0_24__pxrReserved__21pxr_double_conversion6Bignum5ClampEv.exit

78:                                               ; preds = %70
  %79 = add nsw i16 %71, -1
  store i16 %79, ptr %0, align 4
  %80 = icmp sgt i16 %71, 1
  br i1 %80, label %70, label %.critedge.thread3.i, !llvm.loop !9

.critedge.i:                                      ; preds = %._crit_edge
  %81 = icmp eq i16 %.pr.i, 0
  br i1 %81, label %.critedge.thread3.i, label %_ZN32pxrInternal_v0_24__pxrReserved__21pxr_double_conversion6Bignum5ClampEv.exit

.critedge.thread3.i:                              ; preds = %78, %.critedge.i
  store i16 0, ptr %3, align 2
  br label %_ZN32pxrInternal_v0_24__pxrReserved__21pxr_double_conversion6Bignum5ClampEv.exit

_ZN32pxrInternal_v0_24__pxrReserved__21pxr_double_conversion6Bignum5ClampEv.exit: ; preds = %70, %.critedge.i, %.critedge.thread3.i
  ret void
}